; Function Attrs: nounwind uwtable
define zeroext range(i8 0, 3) i8 @l_Lean_Expr_fvarsSubset___lambda__1(ptr noundef readonly captures(none) %0, ptr noundef %1) local_unnamed_addr #0 {
  %3 = tail call zeroext i8 @l_Lean_Expr_hasFVar(ptr noundef %1) #3
  %4 = icmp eq i8 %3, 0
  br i1 %4, label %lean_dec.exit15, label %5

5:                                                ; preds = %2
  %6 = tail call zeroext i8 @l_Lean_Expr_isFVar(ptr noundef %1) #3
  %7 = icmp eq i8 %6, 0
  br i1 %7, label %lean_dec.exit15, label %8

8:                                                ; preds = %5
  %9 = getelementptr inbounds nuw i8, ptr %0, i64 16
  %10 = load ptr, ptr %9, align 8, !tbaa !4
  %11 = tail call ptr @l_Lean_Expr_fvarId_x21(ptr noundef %1) #3
  %12 = tail call ptr @l_Lean_RBNode_findCore___at_Lean_Expr_fvarsSubset___spec__1(ptr noundef %10, ptr noundef %11)
  %13 = ptrtoint ptr %11 to i64
  %14 = and i64 %13, 1
  %.not = icmp eq i64 %14, 0
  br i1 %.not, label %15, label %lean_dec.exit

15:                                               ; preds = %8
  %16 = load i32, ptr %11, align 4, !tbaa !8
  %17 = icmp sgt i32 %16, 1
  br i1 %17, label %18, label %20, !prof !11

18:                                               ; preds = %15
  %19 = add nsw i32 %16, -1
  store i32 %19, ptr %11, align 4, !tbaa !8
  br label %lean_dec.exit

20:                                               ; preds = %15
  %.not.i16 = icmp eq i32 %16, 0
  br i1 %.not.i16, label %lean_dec.exit, label %21

21:                                               ; preds = %20
  tail call void @lean_dec_ref_cold(ptr noundef nonnull %11) #3
  br label %lean_dec.exit

lean_dec.exit:                                    ; preds = %21, %20, %18, %8
  %22 = ptrtoint ptr %12 to i64
  %23 = and i64 %22, 1
  %.not.i18 = icmp eq i64 %23, 0
  br i1 %.not.i18, label %lean_obj_tag.exit.thread, label %lean_obj_tag.exit

lean_obj_tag.exit:                                ; preds = %lean_dec.exit
  %24 = and i64 %22, 8589934590
  %25 = icmp ne i64 %24, 0
  %spec.select = zext i1 %25 to i8
  br label %lean_dec.exit15

lean_obj_tag.exit.thread:                         ; preds = %lean_dec.exit
  %26 = getelementptr i8, ptr %12, i64 4
  %.val.i = load i32, ptr %26, align 4
  %27 = icmp ult i32 %.val.i, 16777216
  br i1 %27, label %lean_dec.exit15, label %.thread

.thread:                                          ; preds = %lean_obj_tag.exit.thread
  %28 = load i32, ptr %12, align 4, !tbaa !8
  %29 = icmp sgt i32 %28, 1
  br i1 %29, label %30, label %32, !prof !11

30:                                               ; preds = %.thread
  %31 = add nsw i32 %28, -1
  store i32 %31, ptr %12, align 4, !tbaa !8
  br label %lean_dec.exit15

32:                                               ; preds = %.thread
  %.not.i = icmp eq i32 %28, 0
  br i1 %.not.i, label %lean_dec.exit15, label %33

33:                                               ; preds = %32
  tail call void @lean_dec_ref_cold(ptr noundef nonnull %12) #3
  br label %lean_dec.exit15

lean_dec.exit15:                                  ; preds = %lean_obj_tag.exit, %30, %32, %33, %lean_obj_tag.exit.thread, %5, %2
  %.0 = phi i8 [ 2, %2 ], [ 1, %5 ], [ 0, %lean_obj_tag.exit.thread ], [ 1, %33 ], [ 1, %32 ], [ 1, %30 ], [ %spec.select, %lean_obj_tag.exit ]
  ret i8 %.0
}